; Function Attrs: mustprogress uwtable
define void @_ZNK18OpenImageIO_v2_6_010ImageInput4lockEv(ptr nocapture noundef nonnull readonly align 8 dereferenceable(184) %this) local_unnamed_addr #5 align 2 {
entry:
  %add.ptr.i.i.i.i.i.i = getelementptr inbounds i8, ptr %this, i64 176
  %0 = load ptr, ptr %add.ptr.i.i.i.i.i.i, align 8
  %call1.i.i.i = tail call noundef i32 @pthread_mutex_lock(ptr noundef nonnull %0) #26
  %tobool.not.i = icmp eq i32 %call1.i.i.i, 0
  br i1 %tobool.not.i, label %_ZNSt15recursive_mutex4lockEv.exit, label %if.then.i

if.then.i:                                        ; preds = %entry
  tail call void @_ZSt20__throw_system_errori(i32 noundef %call1.i.i.i) #31
  unreachable

_ZNSt15recursive_mutex4lockEv.exit:               ; preds = %entry
  ret void
}